target datalayout = "e-m:e-p270:32:32-p271:32:32-p272:64:64-i64:64-i128:128-f80:128-n8:16:32:64-S128"
target triple = "x86_64-pc-linux-gnu"

; Function Attrs: mustprogress nounwind uwtable
define dso_local noundef ptr @_Z8AllocFcnji(i32 noundef %0, i32 noundef %1) #1 {
  %3 = alloca i32, align 4
  %4 = alloca i32, align 4
  %5 = alloca i64, align 8
  %6 = alloca ptr, align 8
  store i32 %0, ptr %3, align 4, !tbaa !4
  store i32 %1, ptr %4, align 4, !tbaa !4
  call void @llvm.lifetime.start.p0(i64 8, ptr %5) #14
  %7 = load i32, ptr %3, align 4, !tbaa !4
  %8 = sub i32 %7, 1
  %9 = load i32, ptr %4, align 4, !tbaa !4
  %10 = sub nsw i32 %9, 1
  %11 = or i32 %8, %10
  %12 = add i32 %11, 1
  %13 = zext i32 %12 to i64
  store i64 %13, ptr %5, align 8, !tbaa !8
  call void @llvm.lifetime.start.p0(i64 8, ptr %6) #14
  %14 = load i32, ptr %4, align 4, !tbaa !4
  %15 = sext i32 %14 to i64
  %16 = load i64, ptr %5, align 8, !tbaa !8
  %17 = call noalias ptr @aligned_alloc(i64 noundef %15, i64 noundef %16) #15
  call void @llvm.assume(i1 true) [ "align"(ptr %17, i64 %15) ]
  store ptr %17, ptr %6, align 8, !tbaa !10
  %18 = load ptr, ptr %6, align 8, !tbaa !10
  call void @llvm.lifetime.end.p0(i64 8, ptr %6) #14
  call void @llvm.lifetime.end.p0(i64 8, ptr %5) #14
  ret ptr %18
}