; Function Attrs: mustprogress nofree nounwind willreturn memory(inaccessiblemem: readwrite) uwtable
define dso_local noundef ptr @_Z8AllocFcnji(i32 noundef %0, i32 noundef %1) #1 {
  %3 = add i32 %0, -1
  %4 = add nsw i32 %1, -1
  %5 = or i32 %4, %3
  %6 = add i32 %5, 1
  %7 = zext i32 %6 to i64
  %8 = sext i32 %1 to i64
  %9 = tail call noalias ptr @aligned_alloc(i64 noundef %8, i64 noundef %7) #20
  call void @llvm.assume(i1 true) [ "align"(ptr %9, i64 %8) ]
  ret ptr %9
}